target datalayout = "e-m:e-p270:32:32-p271:32:32-p272:64:64-i64:64-i128:128-f80:128-n8:16:32:64-S128"
target triple = "x86_64-pc-linux-gnu"

%"class.cv::Size_" = type { i32, i32 }
%"class.cv::Scalar_" = type { %"class.cv::Vec" }
%"class.cv::Vec" = type { %"class.cv::Matx" }
%"class.cv::Matx" = type { [4 x double] }
%"class.cv::Mat" = type { i32, i32, i32, i32, ptr, ptr, ptr, ptr, ptr, ptr, %"struct.cv::MatSize", %"struct.cv::MatStep" }
%"struct.cv::MatSize" = type { ptr }
%"struct.cv::MatStep" = type { ptr, [2 x i64] }
%"class.cv::_InputArray" = type { i32, ptr, %"class.cv::Size_" }
%"class.cv::_OutputArray" = type { %"class.cv::_InputArray" }
%"class.cv::Point_" = type { i32, i32 }
%"class.cv::Point_.19" = type { float, float }

; Function Attrs: mustprogress nounwind uwtable
define linkonce_odr hidden void @_ZN2cv4MatxIdLi4ELi1EEC2Ev(ptr noundef nonnull align 8 dereferenceable(32) %0) unnamed_addr #7 comdat align 2 {
  %2 = alloca ptr, align 8
  %3 = alloca i32, align 4
  store ptr %0, ptr %2, align 8
  %4 = load ptr, ptr %2, align 8
  store i32 0, ptr %3, align 4
  br label %5

5:                                                ; preds = %13, %1
  %6 = load i32, ptr %3, align 4
  %7 = icmp slt i32 %6, 4
  br i1 %7, label %8, label %16

8:                                                ; preds = %5
  %9 = getelementptr inbounds %"class.cv::Matx", ptr %4, i32 0, i32 0
  %10 = load i32, ptr %3, align 4
  %11 = sext i32 %10 to i64
  %12 = getelementptr inbounds [4 x double], ptr %9, i64 0, i64 %11
  store double 0.000000e+00, ptr %12, align 8
  br label %13

13:                                               ; preds = %8
  %14 = load i32, ptr %3, align 4
  %15 = add nsw i32 %14, 1
  store i32 %15, ptr %3, align 4
  br label %5, !llvm.loop !11

16:                                               ; preds = %5
  ret void
}

; Function Attrs: mustprogress uwtable
define linkonce_odr hidden void @_ZN2cv3VecIdLi4EEC2Ev(ptr noundef nonnull align 8 dereferenceable(32) %0) unnamed_addr #5 comdat align 2 {
  %2 = alloca ptr, align 8
  store ptr %0, ptr %2, align 8
  %3 = load ptr, ptr %2, align 8
  call void @_ZN2cv4MatxIdLi4ELi1EEC2Ev(ptr noundef nonnull align 8 dereferenceable(32) %3)
  ret void
}

; Function Attrs: mustprogress uwtable
define linkonce_odr hidden void @_ZN2cv11_InputArrayC2Ev(ptr noundef nonnull align 8 dereferenceable(24) %0) unnamed_addr #5 comdat align 2 {
  %2 = alloca ptr, align 8
  store ptr %0, ptr %2, align 8
  %3 = load ptr, ptr %2, align 8
  %4 = getelementptr inbounds %"class.cv::_InputArray", ptr %3, i32 0, i32 2
  call void @_ZN2cv5Size_IiEC2Ev(ptr noundef nonnull align 4 dereferenceable(8) %4)
  call void @_ZN2cv11_InputArray4initEiPKv(ptr noundef nonnull align 8 dereferenceable(24) %3, i32 noundef 0, ptr noundef null)
  ret void
}

; Function Attrs: mustprogress nounwind uwtable
define linkonce_odr hidden void @_ZN2cv11_InputArray4initEiPKv(ptr noundef nonnull align 8 dereferenceable(24) %0, i32 noundef %1, ptr noundef %2) #7 comdat align 2 {
  %4 = alloca ptr, align 8
  %5 = alloca i32, align 4
  %6 = alloca ptr, align 8
  store ptr %0, ptr %4, align 8
  store i32 %1, ptr %5, align 4
  store ptr %2, ptr %6, align 8
  %7 = load ptr, ptr %4, align 8
  %8 = load i32, ptr %5, align 4
  %9 = getelementptr inbounds %"class.cv::_InputArray", ptr %7, i32 0, i32 0
  store i32 %8, ptr %9, align 8
  %10 = load ptr, ptr %6, align 8
  %11 = getelementptr inbounds %"class.cv::_InputArray", ptr %7, i32 0, i32 1
  store ptr %10, ptr %11, align 8
  ret void
}

; Function Attrs: mustprogress nounwind uwtable
define linkonce_odr hidden void @_ZN2cv5Size_IiEC2Ev(ptr noundef nonnull align 4 dereferenceable(8) %0) unnamed_addr #7 comdat align 2 {
  %2 = alloca ptr, align 8
  store ptr %0, ptr %2, align 8
  %3 = load ptr, ptr %2, align 8
  %4 = getelementptr inbounds %"class.cv::Size_", ptr %3, i32 0, i32 0
  store i32 0, ptr %4, align 4
  %5 = getelementptr inbounds %"class.cv::Size_", ptr %3, i32 0, i32 1
  store i32 0, ptr %5, align 4
  ret void
}

; Function Attrs: mustprogress nounwind uwtable
define linkonce_odr hidden void @_ZN2cv6Point_IfEC2Eff(ptr noundef nonnull align 4 dereferenceable(8) %0, float noundef %1, float noundef %2) unnamed_addr #7 comdat align 2 {
  %4 = alloca ptr, align 8
  %5 = alloca float, align 4
  %6 = alloca float, align 4
  store ptr %0, ptr %4, align 8
  store float %1, ptr %5, align 4
  store float %2, ptr %6, align 4
  %7 = load ptr, ptr %4, align 8
  %8 = getelementptr inbounds %"class.cv::Point_.19", ptr %7, i32 0, i32 0
  %9 = load float, ptr %5, align 4
  store float %9, ptr %8, align 4
  %10 = getelementptr inbounds %"class.cv::Point_.19", ptr %7, i32 0, i32 1
  %11 = load float, ptr %6, align 4
  store float %11, ptr %10, align 4
  ret void
}

; Function Attrs: mustprogress nounwind uwtable
define internal noundef float @_ZN2cvL13saturate_castIfEET_i(i32 noundef %0) #7 {
  %2 = alloca i32, align 4
  store i32 %0, ptr %2, align 4
  %3 = load i32, ptr %2, align 4
  %4 = sitofp i32 %3 to float
  ret float %4
}

; Function Attrs: mustprogress nounwind uwtable
define linkonce_odr hidden void @_ZN2cv12_OutputArrayD2Ev(ptr noundef nonnull align 8 dereferenceable(24) %0) unnamed_addr #7 comdat align 2 {
  %2 = alloca ptr, align 8
  store ptr %0, ptr %2, align 8
  %3 = load ptr, ptr %2, align 8
  call void @_ZN2cv11_InputArrayD2Ev(ptr noundef nonnull align 8 dereferenceable(24) %3) #3
  ret void
}

; Function Attrs: mustprogress nounwind uwtable
define linkonce_odr hidden void @_ZN2cv11_InputArrayD2Ev(ptr noundef nonnull align 8 dereferenceable(24) %0) unnamed_addr #7 comdat align 2 {
  %2 = alloca ptr, align 8
  store ptr %0, ptr %2, align 8
  ret void
}

; Function Attrs: mustprogress uwtable
define linkonce_odr hidden void @_ZN2cv7Scalar_IdEC2Ev(ptr noundef nonnull align 8 dereferenceable(32) %0) unnamed_addr #5 comdat align 2 {
  %2 = alloca ptr, align 8
  store ptr %0, ptr %2, align 8
  %3 = load ptr, ptr %2, align 8
  call void @_ZN2cv3VecIdLi4EEC2Ev(ptr noundef nonnull align 8 dereferenceable(32) %3)
  %4 = getelementptr inbounds %"class.cv::Matx", ptr %3, i32 0, i32 0
  %5 = getelementptr inbounds [4 x double], ptr %4, i64 0, i64 3
  store double 0.000000e+00, ptr %5, align 8
  %6 = getelementptr inbounds %"class.cv::Matx", ptr %3, i32 0, i32 0
  %7 = getelementptr inbounds [4 x double], ptr %6, i64 0, i64 2
  store double 0.000000e+00, ptr %7, align 8
  %8 = getelementptr inbounds %"class.cv::Matx", ptr %3, i32 0, i32 0
  %9 = getelementptr inbounds [4 x double], ptr %8, i64 0, i64 1
  store double 0.000000e+00, ptr %9, align 8
  %10 = getelementptr inbounds %"class.cv::Matx", ptr %3, i32 0, i32 0
  %11 = getelementptr inbounds [4 x double], ptr %10, i64 0, i64 0
  store double 0.000000e+00, ptr %11, align 8
  ret void
}

; Function Attrs: mustprogress uwtable
define linkonce_odr hidden void @_ZN2cv12_OutputArrayC2ERNS_3MatE(ptr noundef nonnull align 8 dereferenceable(24) %0, ptr noundef nonnull align 8 dereferenceable(96) %1) unnamed_addr #5 comdat align 2 {
  %3 = alloca ptr, align 8
  %4 = alloca ptr, align 8
  store ptr %0, ptr %3, align 8
  store ptr %1, ptr %4, align 8
  %5 = load ptr, ptr %3, align 8
  call void @_ZN2cv11_InputArrayC2Ev(ptr noundef nonnull align 8 dereferenceable(24) %5)
  %6 = load ptr, ptr %4, align 8
  call void @_ZN2cv11_InputArray4initEiPKv(ptr noundef nonnull align 8 dereferenceable(24) %5, i32 noundef 33619968, ptr noundef %6)
  ret void
}

; Function Attrs: mustprogress uwtable
define linkonce_odr hidden void @_ZN2cv11_InputArrayC2ERKNS_3MatE(ptr noundef nonnull align 8 dereferenceable(24) %0, ptr noundef nonnull align 8 dereferenceable(96) %1) unnamed_addr #5 comdat align 2 {
  %3 = alloca ptr, align 8
  %4 = alloca ptr, align 8
  store ptr %0, ptr %3, align 8
  store ptr %1, ptr %4, align 8
  %5 = load ptr, ptr %3, align 8
  %6 = getelementptr inbounds %"class.cv::_InputArray", ptr %5, i32 0, i32 2
  call void @_ZN2cv5Size_IiEC2Ev(ptr noundef nonnull align 4 dereferenceable(8) %6)
  %7 = load ptr, ptr %4, align 8
  call void @_ZN2cv11_InputArray4initEiPKv(ptr noundef nonnull align 8 dereferenceable(24) %5, i32 noundef 16842752, ptr noundef %7)
  ret void
}

; Function Attrs: mustprogress uwtable
define linkonce_odr hidden <2 x float> @_ZNK2cv6Point_IiEcvNS0_IT_EEIfEEv(ptr noundef nonnull align 4 dereferenceable(8) %0) #8 comdat align 2 {
  %2 = alloca %"class.cv::Point_.19", align 4
  %3 = alloca ptr, align 8
  store ptr %0, ptr %3, align 8
  %4 = load ptr, ptr %3, align 8
  %5 = getelementptr inbounds %"class.cv::Point_", ptr %4, i32 0, i32 0
  %6 = load i32, ptr %5, align 4
  %7 = call noundef float @_ZN2cvL13saturate_castIfEET_i(i32 noundef %6)
  %8 = getelementptr inbounds %"class.cv::Point_", ptr %4, i32 0, i32 1
  %9 = load i32, ptr %8, align 4
  %10 = call noundef float @_ZN2cvL13saturate_castIfEET_i(i32 noundef %9)
  call void @_ZN2cv6Point_IfEC2Eff(ptr noundef nonnull align 4 dereferenceable(8) %2, float noundef %7, float noundef %10)
  %11 = load <2 x float>, ptr %2, align 4
  ret <2 x float> %11
}

; Function Attrs: mustprogress nounwind uwtable
define linkonce_odr hidden void @_ZN2cv6Point_IiEC2Eii(ptr noundef nonnull align 4 dereferenceable(8) %0, i32 noundef %1, i32 noundef %2) unnamed_addr #7 comdat align 2 {
  %4 = alloca ptr, align 8
  %5 = alloca i32, align 4
  %6 = alloca i32, align 4
  store ptr %0, ptr %4, align 8
  store i32 %1, ptr %5, align 4
  store i32 %2, ptr %6, align 4
  %7 = load ptr, ptr %4, align 8
  %8 = getelementptr inbounds %"class.cv::Point_", ptr %7, i32 0, i32 0
  %9 = load i32, ptr %5, align 4
  store i32 %9, ptr %8, align 4
  %10 = getelementptr inbounds %"class.cv::Point_", ptr %7, i32 0, i32 1
  %11 = load i32, ptr %6, align 4
  store i32 %11, ptr %10, align 4
  ret void
}

; Function Attrs: mustprogress nounwind uwtable
define linkonce_odr hidden void @_ZN2cv5Size_IiEC2Eii(ptr noundef nonnull align 4 dereferenceable(8) %0, i32 noundef %1, i32 noundef %2) unnamed_addr #7 comdat align 2 {
  %4 = alloca ptr, align 8
  %5 = alloca i32, align 4
  %6 = alloca i32, align 4
  store ptr %0, ptr %4, align 8
  store i32 %1, ptr %5, align 4
  store i32 %2, ptr %6, align 4
  %7 = load ptr, ptr %4, align 8
  %8 = getelementptr inbounds %"class.cv::Size_", ptr %7, i32 0, i32 0
  %9 = load i32, ptr %5, align 4
  store i32 %9, ptr %8, align 4
  %10 = getelementptr inbounds %"class.cv::Size_", ptr %7, i32 0, i32 1
  %11 = load i32, ptr %6, align 4
  store i32 %11, ptr %10, align 4
  ret void
}

; Function Attrs: mustprogress uwtable
define hidden void @_Z19fourPointsTransformRKN2cv3MatEPKNS_6Point_IfEERS0_(ptr noundef nonnull align 8 dereferenceable(96) %0, ptr noundef %1, ptr noundef nonnull align 8 dereferenceable(96) %2) #8 personality ptr @__gxx_personality_v0 {
  %4 = alloca ptr, align 8
  %5 = alloca ptr, align 8
  %6 = alloca ptr, align 8
  %7 = alloca %"class.cv::Size_", align 4
  %8 = alloca [4 x %"class.cv::Point_.19"], align 16
  %9 = alloca %"class.cv::Point_", align 4
  %10 = alloca %"class.cv::Point_", align 4
  %11 = alloca %"class.cv::Point_", align 4
  %12 = alloca %"class.cv::Point_", align 4
  %13 = alloca %"class.cv::Mat", align 8
  %14 = alloca %"class.cv::_InputArray", align 8
  %15 = alloca ptr, align 8
  %16 = alloca i32, align 4
  %17 = alloca %"class.cv::_OutputArray", align 8
  %18 = alloca %"class.cv::_InputArray", align 8
  %19 = alloca %"class.cv::Size_", align 4
  %20 = alloca %"class.cv::Scalar_", align 8
  store ptr %0, ptr %4, align 8
  store ptr %1, ptr %5, align 8
  store ptr %2, ptr %6, align 8
  call void @_ZN2cv5Size_IiEC2Eii(ptr noundef nonnull align 4 dereferenceable(8) %7, i32 noundef 100, i32 noundef 32)
  %21 = getelementptr inbounds %"class.cv::Size_", ptr %7, i32 0, i32 1
  %22 = load i32, ptr %21, align 4
  %23 = sub nsw i32 %22, 1
  call void @_ZN2cv6Point_IiEC2Eii(ptr noundef nonnull align 4 dereferenceable(8) %9, i32 noundef 0, i32 noundef %23)
  %24 = call <2 x float> @_ZNK2cv6Point_IiEcvNS0_IT_EEIfEEv(ptr noundef nonnull align 4 dereferenceable(8) %9)
  store <2 x float> %24, ptr %8, align 8
  %25 = getelementptr inbounds %"class.cv::Point_.19", ptr %8, i64 1
  call void @_ZN2cv6Point_IiEC2Eii(ptr noundef nonnull align 4 dereferenceable(8) %10, i32 noundef 0, i32 noundef 0)
  %26 = call <2 x float> @_ZNK2cv6Point_IiEcvNS0_IT_EEIfEEv(ptr noundef nonnull align 4 dereferenceable(8) %10)
  store <2 x float> %26, ptr %25, align 8
  %27 = getelementptr inbounds %"class.cv::Point_.19", ptr %8, i64 2
  %28 = getelementptr inbounds %"class.cv::Size_", ptr %7, i32 0, i32 0
  %29 = load i32, ptr %28, align 4
  %30 = sub nsw i32 %29, 1
  call void @_ZN2cv6Point_IiEC2Eii(ptr noundef nonnull align 4 dereferenceable(8) %11, i32 noundef %30, i32 noundef 0)
  %31 = call <2 x float> @_ZNK2cv6Point_IiEcvNS0_IT_EEIfEEv(ptr noundef nonnull align 4 dereferenceable(8) %11)
  store <2 x float> %31, ptr %27, align 8
  %32 = getelementptr inbounds %"class.cv::Point_.19", ptr %8, i64 3
  %33 = getelementptr inbounds %"class.cv::Size_", ptr %7, i32 0, i32 0
  %34 = load i32, ptr %33, align 4
  %35 = sub nsw i32 %34, 1
  %36 = getelementptr inbounds %"class.cv::Size_", ptr %7, i32 0, i32 1
  %37 = load i32, ptr %36, align 4
  %38 = sub nsw i32 %37, 1
  call void @_ZN2cv6Point_IiEC2Eii(ptr noundef nonnull align 4 dereferenceable(8) %12, i32 noundef %35, i32 noundef %38)
  %39 = call <2 x float> @_ZNK2cv6Point_IiEcvNS0_IT_EEIfEEv(ptr noundef nonnull align 4 dereferenceable(8) %12)
  store <2 x float> %39, ptr %32, align 8
  %40 = load ptr, ptr %5, align 8
  %41 = getelementptr inbounds [4 x %"class.cv::Point_.19"], ptr %8, i64 0, i64 0
  call void @_ZN2cv23getPerspectiveTransformEPKNS_6Point_IfEES3_i(ptr dead_on_unwind writable sret(%"class.cv::Mat") align 8 %13, ptr noundef %40, ptr noundef %41, i32 noundef 0)
  %42 = load ptr, ptr %4, align 8
  invoke void @_ZN2cv11_InputArrayC2ERKNS_3MatE(ptr noundef nonnull align 8 dereferenceable(24) %14, ptr noundef nonnull align 8 dereferenceable(96) %42)
          to label %43 unwind label %50

43:                                               ; preds = %3
  %44 = load ptr, ptr %6, align 8
  invoke void @_ZN2cv12_OutputArrayC2ERNS_3MatE(ptr noundef nonnull align 8 dereferenceable(24) %17, ptr noundef nonnull align 8 dereferenceable(96) %44)
          to label %45 unwind label %54

45:                                               ; preds = %43
  invoke void @_ZN2cv11_InputArrayC2ERKNS_3MatE(ptr noundef nonnull align 8 dereferenceable(24) %18, ptr noundef nonnull align 8 dereferenceable(96) %13)
          to label %46 unwind label %58

46:                                               ; preds = %45
  call void @llvm.memcpy.p0.p0.i64(ptr align 4 %19, ptr align 4 %7, i64 8, i1 false)
  invoke void @_ZN2cv7Scalar_IdEC2Ev(ptr noundef nonnull align 8 dereferenceable(32) %20)
          to label %47 unwind label %62

47:                                               ; preds = %46
  %48 = load i64, ptr %19, align 4
  invoke void @_ZN2cv15warpPerspectiveERKNS_11_InputArrayERKNS_12_OutputArrayES2_NS_5Size_IiEEiiRKNS_7Scalar_IdEE(ptr noundef nonnull align 8 dereferenceable(24) %14, ptr noundef nonnull align 8 dereferenceable(24) %17, ptr noundef nonnull align 8 dereferenceable(24) %18, i64 %48, i32 noundef 1, i32 noundef 0, ptr noundef nonnull align 8 dereferenceable(32) %20)
          to label %49 unwind label %62

49:                                               ; preds = %47
  call void @_ZN2cv11_InputArrayD2Ev(ptr noundef nonnull align 8 dereferenceable(24) %18) #3
  call void @_ZN2cv12_OutputArrayD2Ev(ptr noundef nonnull align 8 dereferenceable(24) %17) #3
  call void @_ZN2cv11_InputArrayD2Ev(ptr noundef nonnull align 8 dereferenceable(24) %14) #3
  call void @_ZN2cv3MatD1Ev(ptr noundef nonnull align 8 dereferenceable(96) %13) #3
  ret void

50:                                               ; preds = %3
  %51 = landingpad { ptr, i32 }
          cleanup
  %52 = extractvalue { ptr, i32 } %51, 0
  store ptr %52, ptr %15, align 8
  %53 = extractvalue { ptr, i32 } %51, 1
  store i32 %53, ptr %16, align 4
  br label %68

54:                                               ; preds = %43
  %55 = landingpad { ptr, i32 }
          cleanup
  %56 = extractvalue { ptr, i32 } %55, 0
  store ptr %56, ptr %15, align 8
  %57 = extractvalue { ptr, i32 } %55, 1
  store i32 %57, ptr %16, align 4
  br label %67

58:                                               ; preds = %45
  %59 = landingpad { ptr, i32 }
          cleanup
  %60 = extractvalue { ptr, i32 } %59, 0
  store ptr %60, ptr %15, align 8
  %61 = extractvalue { ptr, i32 } %59, 1
  store i32 %61, ptr %16, align 4
  br label %66

62:                                               ; preds = %47, %46
  %63 = landingpad { ptr, i32 }
          cleanup
  %64 = extractvalue { ptr, i32 } %63, 0
  store ptr %64, ptr %15, align 8
  %65 = extractvalue { ptr, i32 } %63, 1
  store i32 %65, ptr %16, align 4
  call void @_ZN2cv11_InputArrayD2Ev(ptr noundef nonnull align 8 dereferenceable(24) %18) #3
  br label %66

66:                                               ; preds = %62, %58
  call void @_ZN2cv12_OutputArrayD2Ev(ptr noundef nonnull align 8 dereferenceable(24) %17) #3
  br label %67

67:                                               ; preds = %66, %54
  call void @_ZN2cv11_InputArrayD2Ev(ptr noundef nonnull align 8 dereferenceable(24) %14) #3
  br label %68

68:                                               ; preds = %67, %50
  call void @_ZN2cv3MatD1Ev(ptr noundef nonnull align 8 dereferenceable(96) %13) #3
  br label %69

69:                                               ; preds = %68
  %70 = load ptr, ptr %15, align 8
  %71 = load i32, ptr %16, align 4
  %72 = insertvalue { ptr, i32 } poison, ptr %70, 0
  %73 = insertvalue { ptr, i32 } %72, i32 %71, 1
  resume { ptr, i32 } %73
}